target datalayout = "e-m:e-p270:32:32-p271:32:32-p272:64:64-i64:64-i128:128-f80:128-n8:16:32:64-S128"
target triple = "x86_64-pc-linux-gnu"

%struct._Classifier = type { ptr, i32, i32, i32, i16, i16 }
%struct._DwaCompressor = type { ptr, ptr, i32, i32, [2 x i32], [2 x i32], i32, i32, ptr, ptr, ptr, ptr, i64, ptr, i64, ptr, i64, ptr, i64, [3 x ptr], [3 x i64], ptr, ptr, i32, float }
%struct._ChannelData = type { %struct._DctCoderChannelData, ptr, ptr, ptr, [4 x ptr], [4 x ptr], i64, i32, i32, i32, [20 x i8] }
%struct._DctCoderChannelData = type { [64 x float], [64 x i16], ptr, ptr, i64, i64, i32, [28 x i8] }

; Function Attrs: inlinehint nounwind uwtable
define internal void @Classifier_destroy(ptr noundef %0, ptr noundef %1) #4 {
  %3 = alloca ptr, align 8
  %4 = alloca ptr, align 8
  store ptr %0, ptr %3, align 8, !tbaa !88
  store ptr %1, ptr %4, align 8, !tbaa !208
  %5 = load ptr, ptr %4, align 8, !tbaa !208
  %6 = getelementptr inbounds nuw %struct._Classifier, ptr %5, i32 0, i32 0
  %7 = load ptr, ptr %6, align 8, !tbaa !209
  %8 = icmp ne ptr %7, null
  br i1 %8, label %9, label %21

9:                                                ; preds = %2
  %10 = load ptr, ptr %4, align 8, !tbaa !208
  %11 = getelementptr inbounds nuw %struct._Classifier, ptr %10, i32 0, i32 5
  %12 = load i16, ptr %11, align 2, !tbaa !235
  %13 = icmp ne i16 %12, 0
  br i1 %13, label %21, label %14

14:                                               ; preds = %9
  %15 = load ptr, ptr %3, align 8, !tbaa !88
  %16 = load ptr, ptr %4, align 8, !tbaa !208
  %17 = getelementptr inbounds nuw %struct._Classifier, ptr %16, i32 0, i32 0
  %18 = load ptr, ptr %17, align 8, !tbaa !209
  %19 = ptrtoint ptr %18 to i64
  %20 = inttoptr i64 %19 to ptr
  call void %15(ptr noundef %20)
  br label %21

21:                                               ; preds = %14, %9, %2
  ret void
}

; Function Attrs: nounwind uwtable
define internal void @DctCoderChannelData_destroy(ptr noundef %0, ptr noundef %1) #0 {
  %3 = alloca ptr, align 8
  %4 = alloca ptr, align 8
  store ptr %0, ptr %3, align 8, !tbaa !88
  store ptr %1, ptr %4, align 8, !tbaa !105
  %5 = load ptr, ptr %4, align 8, !tbaa !105
  %6 = getelementptr inbounds nuw %struct._DctCoderChannelData, ptr %5, i32 0, i32 3
  %7 = load ptr, ptr %6, align 8, !tbaa !108
  %8 = icmp ne ptr %7, null
  br i1 %8, label %9, label %14

9:                                                ; preds = %2
  %10 = load ptr, ptr %3, align 8, !tbaa !88
  %11 = load ptr, ptr %4, align 8, !tbaa !105
  %12 = getelementptr inbounds nuw %struct._DctCoderChannelData, ptr %11, i32 0, i32 3
  %13 = load ptr, ptr %12, align 8, !tbaa !108
  call void %10(ptr noundef %13)
  br label %14

14:                                               ; preds = %9, %2
  ret void
}

; Function Attrs: nounwind uwtable
define internal void @DwaCompressor_destroy(ptr noundef %0) #0 {
  %2 = alloca ptr, align 8
  %3 = alloca i32, align 4
  %4 = alloca i64, align 8
  %5 = alloca i32, align 4
  store ptr %0, ptr %2, align 8, !tbaa !17
  %6 = load ptr, ptr %2, align 8, !tbaa !17
  %7 = getelementptr inbounds nuw %struct._DwaCompressor, ptr %6, i32 0, i32 13
  %8 = load ptr, ptr %7, align 8, !tbaa !82
  %9 = icmp ne ptr %8, null
  br i1 %9, label %10, label %17

10:                                               ; preds = %1
  %11 = load ptr, ptr %2, align 8, !tbaa !17
  %12 = getelementptr inbounds nuw %struct._DwaCompressor, ptr %11, i32 0, i32 22
  %13 = load ptr, ptr %12, align 8, !tbaa !44
  %14 = load ptr, ptr %2, align 8, !tbaa !17
  %15 = getelementptr inbounds nuw %struct._DwaCompressor, ptr %14, i32 0, i32 13
  %16 = load ptr, ptr %15, align 8, !tbaa !82
  call void %13(ptr noundef %16)
  br label %17

17:                                               ; preds = %10, %1
  %18 = load ptr, ptr %2, align 8, !tbaa !17
  %19 = getelementptr inbounds nuw %struct._DwaCompressor, ptr %18, i32 0, i32 15
  %20 = load ptr, ptr %19, align 8, !tbaa !83
  %21 = icmp ne ptr %20, null
  br i1 %21, label %22, label %29

22:                                               ; preds = %17
  %23 = load ptr, ptr %2, align 8, !tbaa !17
  %24 = getelementptr inbounds nuw %struct._DwaCompressor, ptr %23, i32 0, i32 22
  %25 = load ptr, ptr %24, align 8, !tbaa !44
  %26 = load ptr, ptr %2, align 8, !tbaa !17
  %27 = getelementptr inbounds nuw %struct._DwaCompressor, ptr %26, i32 0, i32 15
  %28 = load ptr, ptr %27, align 8, !tbaa !83
  call void %25(ptr noundef %28)
  br label %29

29:                                               ; preds = %22, %17
  %30 = load ptr, ptr %2, align 8, !tbaa !17
  %31 = getelementptr inbounds nuw %struct._DwaCompressor, ptr %30, i32 0, i32 17
  %32 = load ptr, ptr %31, align 8, !tbaa !122
  %33 = icmp ne ptr %32, null
  br i1 %33, label %34, label %41

34:                                               ; preds = %29
  %35 = load ptr, ptr %2, align 8, !tbaa !17
  %36 = getelementptr inbounds nuw %struct._DwaCompressor, ptr %35, i32 0, i32 22
  %37 = load ptr, ptr %36, align 8, !tbaa !44
  %38 = load ptr, ptr %2, align 8, !tbaa !17
  %39 = getelementptr inbounds nuw %struct._DwaCompressor, ptr %38, i32 0, i32 17
  %40 = load ptr, ptr %39, align 8, !tbaa !122
  call void %37(ptr noundef %40)
  br label %41

41:                                               ; preds = %34, %29
  %42 = load ptr, ptr %2, align 8, !tbaa !17
  %43 = getelementptr inbounds nuw %struct._DwaCompressor, ptr %42, i32 0, i32 10
  %44 = load ptr, ptr %43, align 8, !tbaa !125
  %45 = icmp ne ptr %44, null
  br i1 %45, label %46, label %75

46:                                               ; preds = %41
  call void @llvm.lifetime.start.p0(i64 4, ptr %3) #14
  store i32 0, ptr %3, align 4, !tbaa !8
  br label %47

47:                                               ; preds = %65, %46
  %48 = load i32, ptr %3, align 4, !tbaa !8
  %49 = load ptr, ptr %2, align 8, !tbaa !17
  %50 = getelementptr inbounds nuw %struct._DwaCompressor, ptr %49, i32 0, i32 6
  %51 = load i32, ptr %50, align 8, !tbaa !47
  %52 = icmp slt i32 %48, %51
  br i1 %52, label %54, label %53

53:                                               ; preds = %47
  call void @llvm.lifetime.end.p0(i64 4, ptr %3) #14
  br label %68

54:                                               ; preds = %47
  %55 = load ptr, ptr %2, align 8, !tbaa !17
  %56 = getelementptr inbounds nuw %struct._DwaCompressor, ptr %55, i32 0, i32 22
  %57 = load ptr, ptr %56, align 8, !tbaa !44
  %58 = load ptr, ptr %2, align 8, !tbaa !17
  %59 = getelementptr inbounds nuw %struct._DwaCompressor, ptr %58, i32 0, i32 8
  %60 = load ptr, ptr %59, align 8, !tbaa !46
  %61 = load i32, ptr %3, align 4, !tbaa !8
  %62 = sext i32 %61 to i64
  %63 = getelementptr inbounds %struct._ChannelData, ptr %60, i64 %62
  %64 = getelementptr inbounds nuw %struct._ChannelData, ptr %63, i32 0, i32 0
  call void @DctCoderChannelData_destroy(ptr noundef %57, ptr noundef %64)
  br label %65

65:                                               ; preds = %54
  %66 = load i32, ptr %3, align 4, !tbaa !8
  %67 = add nsw i32 %66, 1
  store i32 %67, ptr %3, align 4, !tbaa !8
  br label %47, !llvm.loop !126

68:                                               ; preds = %53
  %69 = load ptr, ptr %2, align 8, !tbaa !17
  %70 = getelementptr inbounds nuw %struct._DwaCompressor, ptr %69, i32 0, i32 22
  %71 = load ptr, ptr %70, align 8, !tbaa !44
  %72 = load ptr, ptr %2, align 8, !tbaa !17
  %73 = getelementptr inbounds nuw %struct._DwaCompressor, ptr %72, i32 0, i32 10
  %74 = load ptr, ptr %73, align 8, !tbaa !125
  call void %71(ptr noundef %74)
  br label %75

75:                                               ; preds = %68, %41
  %76 = load ptr, ptr %2, align 8, !tbaa !17
  %77 = getelementptr inbounds nuw %struct._DwaCompressor, ptr %76, i32 0, i32 9
  %78 = load ptr, ptr %77, align 8, !tbaa !95
  %79 = icmp ne ptr %78, null
  br i1 %79, label %80, label %87

80:                                               ; preds = %75
  %81 = load ptr, ptr %2, align 8, !tbaa !17
  %82 = getelementptr inbounds nuw %struct._DwaCompressor, ptr %81, i32 0, i32 22
  %83 = load ptr, ptr %82, align 8, !tbaa !44
  %84 = load ptr, ptr %2, align 8, !tbaa !17
  %85 = getelementptr inbounds nuw %struct._DwaCompressor, ptr %84, i32 0, i32 9
  %86 = load ptr, ptr %85, align 8, !tbaa !95
  call void %83(ptr noundef %86)
  br label %87

87:                                               ; preds = %80, %75
  %88 = load ptr, ptr %2, align 8, !tbaa !17
  %89 = getelementptr inbounds nuw %struct._DwaCompressor, ptr %88, i32 0, i32 11
  %90 = load ptr, ptr %89, align 8, !tbaa !75
  %91 = icmp ne ptr %90, @sLegacyChannelRules
  br i1 %91, label %92, label %124

92:                                               ; preds = %87
  %93 = load ptr, ptr %2, align 8, !tbaa !17
  %94 = getelementptr inbounds nuw %struct._DwaCompressor, ptr %93, i32 0, i32 11
  %95 = load ptr, ptr %94, align 8, !tbaa !75
  %96 = icmp ne ptr %95, @sDefaultChannelRules
  br i1 %96, label %97, label %124

97:                                               ; preds = %92
  call void @llvm.lifetime.start.p0(i64 8, ptr %4) #14
  store i64 0, ptr %4, align 8, !tbaa !74
  br label %98

98:                                               ; preds = %114, %97
  %99 = load i64, ptr %4, align 8, !tbaa !74
  %100 = load ptr, ptr %2, align 8, !tbaa !17
  %101 = getelementptr inbounds nuw %struct._DwaCompressor, ptr %100, i32 0, i32 12
  %102 = load i64, ptr %101, align 8, !tbaa !76
  %103 = icmp ult i64 %99, %102
  br i1 %103, label %105, label %104

104:                                              ; preds = %98
  call void @llvm.lifetime.end.p0(i64 8, ptr %4) #14
  br label %117

105:                                              ; preds = %98
  %106 = load ptr, ptr %2, align 8, !tbaa !17
  %107 = getelementptr inbounds nuw %struct._DwaCompressor, ptr %106, i32 0, i32 22
  %108 = load ptr, ptr %107, align 8, !tbaa !44
  %109 = load ptr, ptr %2, align 8, !tbaa !17
  %110 = getelementptr inbounds nuw %struct._DwaCompressor, ptr %109, i32 0, i32 11
  %111 = load ptr, ptr %110, align 8, !tbaa !75
  %112 = load i64, ptr %4, align 8, !tbaa !74
  %113 = getelementptr inbounds nuw %struct._Classifier, ptr %111, i64 %112
  call void @Classifier_destroy(ptr noundef %108, ptr noundef %113)
  br label %114

114:                                              ; preds = %105
  %115 = load i64, ptr %4, align 8, !tbaa !74
  %116 = add i64 %115, 1
  store i64 %116, ptr %4, align 8, !tbaa !74
  br label %98, !llvm.loop !127

117:                                              ; preds = %104
  %118 = load ptr, ptr %2, align 8, !tbaa !17
  %119 = getelementptr inbounds nuw %struct._DwaCompressor, ptr %118, i32 0, i32 22
  %120 = load ptr, ptr %119, align 8, !tbaa !44
  %121 = load ptr, ptr %2, align 8, !tbaa !17
  %122 = getelementptr inbounds nuw %struct._DwaCompressor, ptr %121, i32 0, i32 11
  %123 = load ptr, ptr %122, align 8, !tbaa !75
  call void %120(ptr noundef %123)
  br label %124

124:                                              ; preds = %117, %92, %87
  call void @llvm.lifetime.start.p0(i64 4, ptr %5) #14
  store i32 0, ptr %5, align 4, !tbaa !8
  br label %125

125:                                              ; preds = %148, %124
  %126 = load i32, ptr %5, align 4, !tbaa !8
  %127 = icmp slt i32 %126, 3
  br i1 %127, label %129, label %128

128:                                              ; preds = %125
  call void @llvm.lifetime.end.p0(i64 4, ptr %5) #14
  br label %151

129:                                              ; preds = %125
  %130 = load ptr, ptr %2, align 8, !tbaa !17
  %131 = getelementptr inbounds nuw %struct._DwaCompressor, ptr %130, i32 0, i32 19
  %132 = load i32, ptr %5, align 4, !tbaa !8
  %133 = sext i32 %132 to i64
  %134 = getelementptr inbounds [3 x ptr], ptr %131, i64 0, i64 %133
  %135 = load ptr, ptr %134, align 8, !tbaa !81
  %136 = icmp ne ptr %135, null
  br i1 %136, label %137, label %147

137:                                              ; preds = %129
  %138 = load ptr, ptr %2, align 8, !tbaa !17
  %139 = getelementptr inbounds nuw %struct._DwaCompressor, ptr %138, i32 0, i32 22
  %140 = load ptr, ptr %139, align 8, !tbaa !44
  %141 = load ptr, ptr %2, align 8, !tbaa !17
  %142 = getelementptr inbounds nuw %struct._DwaCompressor, ptr %141, i32 0, i32 19
  %143 = load i32, ptr %5, align 4, !tbaa !8
  %144 = sext i32 %143 to i64
  %145 = getelementptr inbounds [3 x ptr], ptr %142, i64 0, i64 %144
  %146 = load ptr, ptr %145, align 8, !tbaa !81
  call void %140(ptr noundef %146)
  br label %147

147:                                              ; preds = %137, %129
  br label %148

148:                                              ; preds = %147
  %149 = load i32, ptr %5, align 4, !tbaa !8
  %150 = add nsw i32 %149, 1
  store i32 %150, ptr %5, align 4, !tbaa !8
  br label %125, !llvm.loop !128

151:                                              ; preds = %128
  ret void
}