; Function Attrs: nounwind uwtable
define internal fastcc void @DwaCompressor_destroy(ptr noundef nonnull readonly captures(none) %0) unnamed_addr #0 {
  %2 = getelementptr inbounds nuw i8, ptr %0, i64 88
  %3 = load ptr, ptr %2, align 8, !tbaa !91
  %.not = icmp eq ptr %3, null
  br i1 %.not, label %7, label %4

4:                                                ; preds = %1
  %5 = getelementptr inbounds nuw i8, ptr %0, i64 192
  %6 = load ptr, ptr %5, align 8, !tbaa !42
  tail call void %6(ptr noundef nonnull %3) #20
  br label %7

7:                                                ; preds = %4, %1
  %8 = getelementptr inbounds nuw i8, ptr %0, i64 104
  %9 = load ptr, ptr %8, align 8, !tbaa !92
  %.not45 = icmp eq ptr %9, null
  br i1 %.not45, label %13, label %10

10:                                               ; preds = %7
  %11 = getelementptr inbounds nuw i8, ptr %0, i64 192
  %12 = load ptr, ptr %11, align 8, !tbaa !42
  tail call void %12(ptr noundef nonnull %9) #20
  br label %13

13:                                               ; preds = %10, %7
  %14 = getelementptr inbounds nuw i8, ptr %0, i64 120
  %15 = load ptr, ptr %14, align 8, !tbaa !135
  %.not46 = icmp eq ptr %15, null
  br i1 %.not46, label %19, label %16

16:                                               ; preds = %13
  %17 = getelementptr inbounds nuw i8, ptr %0, i64 192
  %18 = load ptr, ptr %17, align 8, !tbaa !42
  tail call void %18(ptr noundef nonnull %15) #20
  br label %19

19:                                               ; preds = %16, %13
  %20 = getelementptr inbounds nuw i8, ptr %0, i64 64
  %21 = load ptr, ptr %20, align 8, !tbaa !138
  %.not47 = icmp eq ptr %21, null
  br i1 %.not47, label %39, label %.preheader53

.preheader53:                                     ; preds = %19
  %22 = getelementptr inbounds nuw i8, ptr %0, i64 40
  %23 = load i32, ptr %22, align 8, !tbaa !45
  %24 = icmp sgt i32 %23, 0
  br i1 %24, label %.lr.ph, label %._crit_edge

.lr.ph:                                           ; preds = %.preheader53
  %25 = getelementptr inbounds nuw i8, ptr %0, i64 48
  %26 = getelementptr inbounds nuw i8, ptr %0, i64 192
  br label %30

._crit_edge.loopexit:                             ; preds = %DctCoderChannelData_destroy.exit
  %.pre64 = load ptr, ptr %20, align 8, !tbaa !138
  br label %._crit_edge

._crit_edge:                                      ; preds = %._crit_edge.loopexit, %.preheader53
  %27 = phi ptr [ %.pre64, %._crit_edge.loopexit ], [ %21, %.preheader53 ]
  %28 = getelementptr inbounds nuw i8, ptr %0, i64 192
  %29 = load ptr, ptr %28, align 8, !tbaa !42
  tail call void %29(ptr noundef %27) #20
  br label %39

30:                                               ; preds = %.lr.ph, %DctCoderChannelData_destroy.exit
  %31 = phi i32 [ %23, %.lr.ph ], [ %36, %DctCoderChannelData_destroy.exit ]
  %indvars.iv = phi i64 [ 0, %.lr.ph ], [ %indvars.iv.next, %DctCoderChannelData_destroy.exit ]
  %32 = load ptr, ptr %25, align 8, !tbaa !44
  %33 = getelementptr %struct._ChannelData, ptr %32, i64 %indvars.iv, i32 0, i32 3
  %.val = load ptr, ptr %33, align 8, !tbaa !110
  %.not.i = icmp eq ptr %.val, null
  br i1 %.not.i, label %DctCoderChannelData_destroy.exit, label %34

34:                                               ; preds = %30
  %35 = load ptr, ptr %26, align 8, !tbaa !42
  tail call void %35(ptr noundef nonnull %.val) #20
  %.pre = load i32, ptr %22, align 8, !tbaa !45
  br label %DctCoderChannelData_destroy.exit

DctCoderChannelData_destroy.exit:                 ; preds = %30, %34
  %36 = phi i32 [ %31, %30 ], [ %.pre, %34 ]
  %indvars.iv.next = add nuw nsw i64 %indvars.iv, 1
  %37 = sext i32 %36 to i64
  %38 = icmp slt i64 %indvars.iv.next, %37
  br i1 %38, label %30, label %._crit_edge.loopexit, !llvm.loop !139

39:                                               ; preds = %._crit_edge, %19
  %40 = getelementptr inbounds nuw i8, ptr %0, i64 56
  %41 = load ptr, ptr %40, align 8, !tbaa !114
  %.not48 = icmp eq ptr %41, null
  br i1 %.not48, label %45, label %42

42:                                               ; preds = %39
  %43 = getelementptr inbounds nuw i8, ptr %0, i64 192
  %44 = load ptr, ptr %43, align 8, !tbaa !42
  tail call void %44(ptr noundef nonnull %41) #20
  br label %45

45:                                               ; preds = %42, %39
  %46 = getelementptr inbounds nuw i8, ptr %0, i64 72
  %47 = load ptr, ptr %46, align 8, !tbaa !75
  %.not49 = icmp eq ptr %47, @sLegacyChannelRules
  %.not50 = icmp eq ptr %47, @sDefaultChannelRules
  %or.cond = or i1 %.not49, %.not50
  br i1 %or.cond, label %67, label %.preheader

.preheader:                                       ; preds = %45
  %48 = getelementptr inbounds nuw i8, ptr %0, i64 80
  %49 = load i64, ptr %48, align 8, !tbaa !76
  %.not59 = icmp eq i64 %49, 0
  br i1 %.not59, label %._crit_edge57, label %.lr.ph56

.lr.ph56:                                         ; preds = %.preheader
  %50 = getelementptr inbounds nuw i8, ptr %0, i64 192
  br label %54

._crit_edge57.loopexit:                           ; preds = %Classifier_destroy.exit
  %.pre66 = load ptr, ptr %46, align 8, !tbaa !75
  br label %._crit_edge57

._crit_edge57:                                    ; preds = %._crit_edge57.loopexit, %.preheader
  %51 = phi ptr [ %.pre66, %._crit_edge57.loopexit ], [ %47, %.preheader ]
  %52 = getelementptr inbounds nuw i8, ptr %0, i64 192
  %53 = load ptr, ptr %52, align 8, !tbaa !42
  tail call void %53(ptr noundef %51) #20
  br label %67

54:                                               ; preds = %.lr.ph56, %Classifier_destroy.exit
  %55 = phi i64 [ %49, %.lr.ph56 ], [ %64, %Classifier_destroy.exit ]
  %.03755 = phi i64 [ 0, %.lr.ph56 ], [ %65, %Classifier_destroy.exit ]
  %56 = load ptr, ptr %50, align 8, !tbaa !42
  %57 = load ptr, ptr %46, align 8, !tbaa !75
  %58 = getelementptr inbounds nuw %struct._Classifier, ptr %57, i64 %.03755
  %59 = load ptr, ptr %58, align 8, !tbaa !83
  %.not.i52 = icmp eq ptr %59, null
  br i1 %.not.i52, label %Classifier_destroy.exit, label %60

60:                                               ; preds = %54
  %61 = getelementptr inbounds nuw i8, ptr %58, i64 22
  %62 = load i16, ptr %61, align 2, !tbaa !140
  %.not4.i = icmp eq i16 %62, 0
  br i1 %.not4.i, label %63, label %Classifier_destroy.exit

63:                                               ; preds = %60
  tail call void %56(ptr noundef nonnull %59) #20
  %.pre65 = load i64, ptr %48, align 8, !tbaa !76
  br label %Classifier_destroy.exit

Classifier_destroy.exit:                          ; preds = %54, %60, %63
  %64 = phi i64 [ %55, %54 ], [ %55, %60 ], [ %.pre65, %63 ]
  %65 = add nuw i64 %.03755, 1
  %66 = icmp ult i64 %65, %64
  br i1 %66, label %54, label %._crit_edge57.loopexit, !llvm.loop !141

67:                                               ; preds = %._crit_edge57, %45
  %68 = getelementptr inbounds nuw i8, ptr %0, i64 136
  %69 = getelementptr inbounds nuw i8, ptr %0, i64 192
  br label %71

70:                                               ; preds = %76
  ret void

71:                                               ; preds = %67, %76
  %indvars.iv61 = phi i64 [ 0, %67 ], [ %indvars.iv.next62, %76 ]
  %72 = getelementptr inbounds nuw [3 x ptr], ptr %68, i64 0, i64 %indvars.iv61
  %73 = load ptr, ptr %72, align 8, !tbaa !97
  %.not51 = icmp eq ptr %73, null
  br i1 %.not51, label %76, label %74

74:                                               ; preds = %71
  %75 = load ptr, ptr %69, align 8, !tbaa !42
  tail call void %75(ptr noundef nonnull %73) #20
  br label %76

76:                                               ; preds = %71, %74
  %indvars.iv.next62 = add nuw nsw i64 %indvars.iv61, 1
  %exitcond.not = icmp eq i64 %indvars.iv.next62, 3
  br i1 %exitcond.not, label %70, label %71, !llvm.loop !142
}